; Function Attrs: nounwind uwtable
define dso_local void @zscanCommand(ptr noundef %0) local_unnamed_addr #0 {
  %2 = alloca i64, align 8
  call void @llvm.lifetime.start.p0(i64 8, ptr nonnull %2) #18
  %3 = getelementptr inbounds nuw i8, ptr %0, i64 96
  %4 = load ptr, ptr %3, align 8, !tbaa !136
  %5 = getelementptr inbounds nuw i8, ptr %4, i64 16
  %6 = load ptr, ptr %5, align 8, !tbaa !146
  %7 = call i32 @parseScanCursorOrReply(ptr noundef %0, ptr noundef %6, ptr noundef nonnull %2) #18
  %8 = icmp eq i32 %7, -1
  br i1 %8, label %20, label %9

9:                                                ; preds = %1
  %10 = load ptr, ptr %3, align 8, !tbaa !136
  %11 = getelementptr inbounds nuw i8, ptr %10, i64 8
  %12 = load ptr, ptr %11, align 8, !tbaa !146
  %13 = load ptr, ptr getelementptr inbounds nuw (i8, ptr @shared, i64 480), align 8, !tbaa !214
  %14 = call ptr @lookupKeyReadOrReply(ptr noundef nonnull %0, ptr noundef %12, ptr noundef %13) #18
  %15 = icmp eq ptr %14, null
  br i1 %15, label %20, label %16

16:                                               ; preds = %9
  %17 = call i32 @checkType(ptr noundef nonnull %0, ptr noundef nonnull %14, i32 noundef 3) #18
  %.not = icmp eq i32 %17, 0
  br i1 %.not, label %18, label %20

18:                                               ; preds = %16
  %19 = load i64, ptr %2, align 8, !tbaa !88
  call void @scanGenericCommand(ptr noundef nonnull %0, ptr noundef nonnull %14, i64 noundef %19) #18
  br label %20

20:                                               ; preds = %9, %16, %1, %18
  call void @llvm.lifetime.end.p0(i64 8, ptr nonnull %2) #18
  ret void
}